target datalayout = "e-m:e-p270:32:32-p271:32:32-p272:64:64-i64:64-i128:128-f80:128-n8:16:32:64-S128"
target triple = "x86_64-pc-linux-gnu"

%struct.gmx_ana_selparam_t = type { ptr, %struct.gmx_ana_selvalue_t, ptr, i32 }
%struct.gmx_ana_selvalue_t = type { i32, i32, %union.anon, i32 }
%union.anon = type { ptr }
%struct.t_methoddata_pos = type { ptr, %struct.gmx_ana_index_t, ptr, i8, ptr, i32 }
%struct.gmx_ana_index_t = type { i32, ptr, i32 }

; Function Attrs: mustprogress uwtable
define internal void @_ZL8init_cogPK10gmx_mtop_tiP18gmx_ana_selparam_tPv(ptr noundef %0, i32 noundef %1, ptr noundef %2, ptr noundef %3) #0 {
  %5 = alloca ptr, align 8
  %6 = alloca i32, align 4
  %7 = alloca ptr, align 8
  %8 = alloca ptr, align 8
  %9 = alloca ptr, align 8
  store ptr %0, ptr %5, align 8, !tbaa !26
  store i32 %1, ptr %6, align 4, !tbaa !4
  store ptr %2, ptr %7, align 8, !tbaa !8
  store ptr %3, ptr %8, align 8, !tbaa !11
  call void @llvm.lifetime.start.p0(i64 8, ptr %9) #6
  %10 = load ptr, ptr %8, align 8, !tbaa !11
  store ptr %10, ptr %9, align 8, !tbaa !11
  %11 = load ptr, ptr %7, align 8, !tbaa !8
  %12 = getelementptr inbounds %struct.gmx_ana_selparam_t, ptr %11, i64 0
  %13 = getelementptr inbounds nuw %struct.gmx_ana_selparam_t, ptr %12, i32 0, i32 3
  %14 = load i32, ptr %13, align 8, !tbaa !28
  %15 = and i32 %14, 4
  %16 = icmp ne i32 %15, 0
  %17 = select i1 %16, i32 16, i32 0
  %18 = load ptr, ptr %9, align 8, !tbaa !11
  %19 = getelementptr inbounds nuw %struct.t_methoddata_pos, ptr %18, i32 0, i32 5
  store i32 %17, ptr %19, align 8, !tbaa !23
  %20 = load ptr, ptr %9, align 8, !tbaa !11
  %21 = getelementptr inbounds nuw %struct.t_methoddata_pos, ptr %20, i32 0, i32 0
  %22 = load ptr, ptr %21, align 8, !tbaa !25
  %23 = load ptr, ptr %9, align 8, !tbaa !11
  %24 = getelementptr inbounds nuw %struct.t_methoddata_pos, ptr %23, i32 0, i32 3
  %25 = load i8, ptr %24, align 8, !tbaa !21, !range !48, !noundef !49
  %26 = trunc i8 %25 to i1
  %27 = select i1 %26, i32 4, i32 3
  %28 = load ptr, ptr %9, align 8, !tbaa !11
  %29 = getelementptr inbounds nuw %struct.t_methoddata_pos, ptr %28, i32 0, i32 5
  %30 = load i32, ptr %29, align 8, !tbaa !23
  %31 = call noundef ptr @_ZN3gmx29PositionCalculationCollection17createCalculationE11e_poscalc_ti(ptr noundef nonnull align 8 dereferenceable(8) %22, i32 noundef %27, i32 noundef %30)
  %32 = load ptr, ptr %9, align 8, !tbaa !11
  %33 = getelementptr inbounds nuw %struct.t_methoddata_pos, ptr %32, i32 0, i32 2
  store ptr %31, ptr %33, align 8, !tbaa !13
  %34 = load ptr, ptr %9, align 8, !tbaa !11
  %35 = getelementptr inbounds nuw %struct.t_methoddata_pos, ptr %34, i32 0, i32 2
  %36 = load ptr, ptr %35, align 8, !tbaa !13
  %37 = load ptr, ptr %9, align 8, !tbaa !11
  %38 = getelementptr inbounds nuw %struct.t_methoddata_pos, ptr %37, i32 0, i32 1
  call void @_Z28gmx_ana_poscalc_set_maxindexP17gmx_ana_poscalc_tP15gmx_ana_index_t(ptr noundef %36, ptr noundef %38)
  call void @llvm.lifetime.end.p0(i64 8, ptr %9) #6
  ret void
}