; Function Attrs: mustprogress uwtable
define internal void @_ZL8init_cogPK10gmx_mtop_tiP18gmx_ana_selparam_tPv(ptr readnone captures(none) %0, i32 %1, ptr noundef readonly captures(none) %2, ptr noundef initializes((32, 40), (56, 60)) %3) #0 {
  %5 = getelementptr inbounds nuw i8, ptr %2, i64 40
  %6 = load i32, ptr %5, align 8, !tbaa !21
  %7 = shl i32 %6, 2
  %8 = and i32 %7, 16
  %9 = getelementptr inbounds nuw i8, ptr %3, i64 56
  store i32 %8, ptr %9, align 8, !tbaa !19
  %10 = load ptr, ptr %3, align 8, !tbaa !20
  %11 = getelementptr inbounds nuw i8, ptr %3, i64 40
  %12 = load i8, ptr %11, align 8, !tbaa !17, !range !31, !noundef !32
  %13 = trunc nuw i8 %12 to i1
  %14 = select i1 %13, i32 4, i32 3
  %15 = tail call noundef ptr @_ZN3gmx29PositionCalculationCollection17createCalculationE11e_poscalc_ti(ptr noundef nonnull align 8 dereferenceable(8) %10, i32 noundef %14, i32 noundef %8)
  %16 = getelementptr inbounds nuw i8, ptr %3, i64 32
  store ptr %15, ptr %16, align 8, !tbaa !7
  %17 = getelementptr inbounds nuw i8, ptr %3, i64 8
  tail call void @_Z28gmx_ana_poscalc_set_maxindexP17gmx_ana_poscalc_tP15gmx_ana_index_t(ptr noundef %15, ptr noundef nonnull %17)
  ret void
}